target datalayout = "e-m:e-p270:32:32-p271:32:32-p272:64:64-i64:64-i128:128-f80:128-n8:16:32:64-S128"
target triple = "x86_64-pc-linux-gnu"

%struct.malloc_params = type { i64, i64, i64, i64, i64, i32 }
%struct.malloc_state = type { i32, i32, i64, i64, ptr, ptr, ptr, i64, i64, i64, [66 x ptr], [32 x ptr], i64, i64, i64, i32, i32, %struct.malloc_segment, ptr, i64 }
%struct.malloc_segment = type { ptr, i64, ptr, i32 }

@mparams = internal global %struct.malloc_params zeroinitializer, align 8
@_gm_ = internal global %struct.malloc_state zeroinitializer, align 8

; Function Attrs: nounwind uwtable
define hidden ptr @dlmemalign(i64 noundef %0, i64 noundef %1) #0 {
  %3 = alloca ptr, align 8
  %4 = alloca i64, align 8
  %5 = alloca i64, align 8
  store i64 %0, ptr %4, align 8, !tbaa !3
  store i64 %1, ptr %5, align 8, !tbaa !3
  %6 = load i64, ptr %4, align 8, !tbaa !3
  %7 = icmp ule i64 %6, 16
  br i1 %7, label %8, label %11

8:                                                ; preds = %2
  %9 = load i64, ptr %5, align 8, !tbaa !3
  %10 = call ptr @dlmalloc(i64 noundef %9)
  store ptr %10, ptr %3, align 8
  br label %15

11:                                               ; preds = %2
  %12 = load i64, ptr %4, align 8, !tbaa !3
  %13 = load i64, ptr %5, align 8, !tbaa !3
  %14 = call ptr @internal_memalign(ptr noundef @_gm_, i64 noundef %12, i64 noundef %13)
  store ptr %14, ptr %3, align 8
  br label %15

15:                                               ; preds = %11, %8
  %16 = load ptr, ptr %3, align 8
  ret ptr %16
}

; Function Attrs: nounwind uwtable
define hidden ptr @dlvalloc(i64 noundef %0) #0 {
  %2 = alloca i64, align 8
  %3 = alloca i64, align 8
  store i64 %0, ptr %2, align 8, !tbaa !3
  call void @llvm.lifetime.start.p0(i64 8, ptr %3) #9
  %4 = load i64, ptr @mparams, align 8, !tbaa !7
  %5 = icmp ne i64 %4, 0
  br i1 %5, label %8, label %6

6:                                                ; preds = %1
  %7 = call i32 @init_mparams()
  br label %8

8:                                                ; preds = %6, %1
  %9 = load i64, ptr getelementptr inbounds nuw (%struct.malloc_params, ptr @mparams, i32 0, i32 1), align 8, !tbaa !29
  store i64 %9, ptr %3, align 8, !tbaa !3
  %10 = load i64, ptr %3, align 8, !tbaa !3
  %11 = load i64, ptr %2, align 8, !tbaa !3
  %12 = call ptr @dlmemalign(i64 noundef %10, i64 noundef %11)
  call void @llvm.lifetime.end.p0(i64 8, ptr %3) #9
  ret ptr %12
}