; Function Attrs: nounwind uwtable
define hidden ptr @dlvalloc(i64 noundef %0) local_unnamed_addr #0 {
  %2 = load i64, ptr @mparams, align 8, !tbaa !3
  %.not = icmp eq i64 %2, 0
  br i1 %.not, label %3, label %4

3:                                                ; preds = %1
  tail call fastcc void @init_mparams()
  br label %4

4:                                                ; preds = %3, %1
  %5 = load i64, ptr getelementptr inbounds nuw (i8, ptr @mparams, i64 8), align 8, !tbaa !31
  %6 = icmp ult i64 %5, 17
  br i1 %6, label %7, label %9

7:                                                ; preds = %4
  %8 = tail call ptr @dlmalloc(i64 noundef %0)
  br label %dlmemalign.exit

9:                                                ; preds = %4
  %10 = tail call fastcc ptr @internal_memalign(ptr noundef nonnull @_gm_, i64 noundef %5, i64 noundef %0)
  br label %dlmemalign.exit

dlmemalign.exit:                                  ; preds = %7, %9
  %.0.i = phi ptr [ %8, %7 ], [ %10, %9 ]
  ret ptr %.0.i
}